; Function Attrs: mustprogress nounwind uwtable
define dso_local void @_ZN4node4quic8Endpoint15DisassociateCIDERKNS0_3CIDE(ptr noundef nonnull align 8 dereferenceable(1520) %this, ptr noundef nonnull align 8 dereferenceable(48) %cid) local_unnamed_addr #3 align 2 {
entry:
  %impl_.i.i = getelementptr inbounds i8, ptr %this, i64 440
  %0 = load ptr, ptr %impl_.i.i, align 8
  %cmp.i.not.i.i.not = icmp eq ptr %0, null
  br i1 %cmp.i.not.i.i.not, label %land.lhs.true, label %if.end

land.lhs.true:                                    ; preds = %entry
  %call2 = tail call noundef zeroext i1 @_ZNK4node4quic3CIDcvbEv(ptr noundef nonnull align 8 dereferenceable(48) %cid) #21
  br i1 %call2, label %if.then, label %if.end

if.then:                                          ; preds = %land.lhs.true
  %dcid_to_scid_ = getelementptr inbounds i8, ptr %this, i64 1296
  %call.i.i = tail call noundef i64 @_ZNSt10_HashtableIN4node4quic3CIDESt4pairIKS2_S2_ESaIS5_ENSt8__detail10_Select1stESt8equal_toIS2_ENS2_4HashENS7_18_Mod_range_hashingENS7_20_Default_ranged_hashENS7_20_Prime_rehash_policyENS7_17_Hashtable_traitsILb1ELb0ELb1EEEE8_M_eraseESt17integral_constantIbLb1EERS4_(ptr noundef nonnull align 8 dereferenceable(64) %dcid_to_scid_, ptr noundef nonnull align 8 dereferenceable(48) %cid)
  br label %if.end

if.end:                                           ; preds = %if.then, %land.lhs.true, %entry
  ret void
}